; Function Attrs: nounwind uwtable
define internal range(i32 -1, 45) i32 @element1(ptr noundef writeonly captures(none) %0, i32 noundef %1, ptr noundef %2, ptr noundef %3, ptr noundef %4) #1 {
  switch i32 %1, label %19 [
    i32 15, label %20
    i32 18, label %6
    i32 23, label %17
  ]

6:                                                ; preds = %5
  %7 = getelementptr inbounds nuw i8, ptr %4, i64 40
  %8 = load ptr, ptr %7, align 8, !tbaa !10
  %9 = tail call i32 %8(ptr noundef %4, ptr noundef %2, ptr noundef %3, ptr noundef nonnull @KW_EMPTY) #5
  %.not = icmp eq i32 %9, 0
  br i1 %.not, label %12, label %10

10:                                               ; preds = %6
  store ptr @declClose, ptr %0, align 8, !tbaa !4
  %11 = getelementptr inbounds nuw i8, ptr %0, i64 12
  store i32 39, ptr %11, align 4, !tbaa !13
  br label %20

12:                                               ; preds = %6
  %13 = load ptr, ptr %7, align 8, !tbaa !10
  %14 = tail call i32 %13(ptr noundef nonnull %4, ptr noundef %2, ptr noundef %3, ptr noundef nonnull @KW_ANY) #5
  %.not17 = icmp eq i32 %14, 0
  br i1 %.not17, label %19, label %15

15:                                               ; preds = %12
  store ptr @declClose, ptr %0, align 8, !tbaa !4
  %16 = getelementptr inbounds nuw i8, ptr %0, i64 12
  store i32 39, ptr %16, align 4, !tbaa !13
  br label %20

17:                                               ; preds = %5
  store ptr @element2, ptr %0, align 8, !tbaa !4
  %18 = getelementptr inbounds nuw i8, ptr %0, i64 8
  store i32 1, ptr %18, align 8, !tbaa !18
  br label %20

19:                                               ; preds = %12, %5
  store ptr @error, ptr %0, align 8, !tbaa !4
  br label %20

20:                                               ; preds = %5, %19, %17, %15, %10
  %.0 = phi i32 [ -1, %19 ], [ 44, %17 ], [ 42, %10 ], [ 41, %15 ], [ 39, %5 ]
  ret i32 %.0
}